; Function Attrs: mustprogress nounwind uwtable
define hidden noundef ptr @_ZN14InitializeNode19find_captured_storeEliP11PhaseValues(ptr noundef nonnull align 8 dereferenceable(73) %0, i64 noundef %1, i32 noundef %2, ptr noundef %3) local_unnamed_addr #1 align 2 {
  %5 = tail call noundef i32 @_ZN14InitializeNode30captured_store_insertion_pointEliP11PhaseValues(ptr noundef nonnull align 8 dereferenceable(73) %0, i64 noundef %1, i32 noundef %2, ptr noundef %3)
  %6 = icmp eq i32 %5, 0
  br i1 %6, label %_ZN14InitializeNode11zero_memoryEv.exit, label %7

7:                                                ; preds = %4
  %8 = icmp slt i32 %5, 0
  %9 = getelementptr inbounds i8, ptr %0, i64 8
  %10 = load ptr, ptr %9, align 8
  br i1 %8, label %11, label %30

11:                                               ; preds = %7
  %12 = getelementptr inbounds i8, ptr %10, i64 16
  %13 = load ptr, ptr %12, align 8
  %14 = getelementptr inbounds i8, ptr %13, i64 44
  %15 = load i32, ptr %14, align 4
  %16 = and i32 %15, 255
  %17 = icmp eq i32 %16, 128
  br i1 %17, label %18, label %_ZN14InitializeNode11zero_memoryEv.exit

18:                                               ; preds = %11
  %19 = getelementptr inbounds i8, ptr %13, i64 24
  %20 = load i32, ptr %19, align 8
  %21 = icmp ugt i32 %20, 3
  %22 = getelementptr inbounds i8, ptr %13, i64 8
  %23 = load ptr, ptr %22, align 8
  %.in.i.i.v.i = select i1 %21, i64 24, i64 8
  %.in.i.i.i = getelementptr inbounds i8, ptr %23, i64 %.in.i.i.v.i
  %24 = load ptr, ptr %.in.i.i.i, align 8
  %25 = getelementptr inbounds i8, ptr %24, i64 16
  %26 = load ptr, ptr %25, align 8
  %27 = icmp eq ptr %26, null
  br i1 %27, label %28, label %_ZN14InitializeNode11zero_memoryEv.exit

28:                                               ; preds = %18
  %29 = getelementptr inbounds i8, ptr %23, i64 16
  br label %_ZN14InitializeNode11zero_memoryEv.exit.sink.split

30:                                               ; preds = %7
  %31 = zext nneg i32 %5 to i64
  %32 = getelementptr inbounds ptr, ptr %10, i64 %31
  br label %_ZN14InitializeNode11zero_memoryEv.exit.sink.split

_ZN14InitializeNode11zero_memoryEv.exit.sink.split: ; preds = %30, %28
  %.sink = phi ptr [ %29, %28 ], [ %32, %30 ]
  %33 = load ptr, ptr %.sink, align 8
  br label %_ZN14InitializeNode11zero_memoryEv.exit

_ZN14InitializeNode11zero_memoryEv.exit:          ; preds = %_ZN14InitializeNode11zero_memoryEv.exit.sink.split, %18, %11, %4
  %.0 = phi ptr [ null, %4 ], [ %13, %11 ], [ %24, %18 ], [ %33, %_ZN14InitializeNode11zero_memoryEv.exit.sink.split ]
  ret ptr %.0
}